target datalayout = "e-m:e-p270:32:32-p271:32:32-p272:64:64-i64:64-i128:128-f80:128-n8:16:32:64-S128"
target triple = "x86_64-pc-linux-gnu"

%"class.std::locale" = type { ptr }
%"class.std::basic_streambuf" = type { ptr, ptr, ptr, ptr, ptr, ptr, ptr, %"class.std::locale" }
%"struct.Stockfish::(anonymous namespace)::Tie" = type { %"class.std::basic_streambuf", ptr, ptr }

; Function Attrs: mustprogress nounwind uwtable
define internal noundef i32 @_ZN9Stockfish12_GLOBAL__N_13Tie4syncEv(ptr noundef nonnull align 8 dereferenceable(80) %0) unnamed_addr #4 align 2 {
  %2 = alloca ptr, align 8
  store ptr %0, ptr %2, align 8
  %3 = load ptr, ptr %2, align 8
  %4 = getelementptr inbounds %"struct.Stockfish::(anonymous namespace)::Tie", ptr %3, i32 0, i32 2
  %5 = load ptr, ptr %4, align 8
  %6 = call noundef i32 @_ZNSt15basic_streambufIcSt11char_traitsIcEE7pubsyncEv(ptr noundef nonnull align 8 dereferenceable(64) %5)
  %7 = getelementptr inbounds %"struct.Stockfish::(anonymous namespace)::Tie", ptr %3, i32 0, i32 1
  %8 = load ptr, ptr %7, align 8
  %9 = call noundef i32 @_ZNSt15basic_streambufIcSt11char_traitsIcEE7pubsyncEv(ptr noundef nonnull align 8 dereferenceable(64) %8)
  ret i32 %9
}