; Function Attrs: mustprogress nounwind uwtable
define internal noundef i32 @_ZN9Stockfish12_GLOBAL__N_13Tie4syncEv(ptr nocapture noundef nonnull readonly align 8 dereferenceable(80) %0) unnamed_addr #3 align 2 {
  %2 = getelementptr inbounds i8, ptr %0, i64 72
  %3 = load ptr, ptr %2, align 8
  %4 = tail call noundef i32 @_ZNSt15basic_streambufIcSt11char_traitsIcEE7pubsyncEv(ptr noundef nonnull align 8 dereferenceable(64) %3) #21
  %5 = getelementptr inbounds i8, ptr %0, i64 64
  %6 = load ptr, ptr %5, align 8
  %7 = tail call noundef i32 @_ZNSt15basic_streambufIcSt11char_traitsIcEE7pubsyncEv(ptr noundef nonnull align 8 dereferenceable(64) %6) #21
  ret i32 %7
}